target datalayout = "e-m:e-p270:32:32-p271:32:32-p272:64:64-i64:64-i128:128-f80:128-n8:16:32:64-S128"
target triple = "x86_64-pc-linux-gnu"

; Function Attrs: nounwind uwtable
define internal void @ps_add_squares_c(ptr noalias noundef %0, ptr noundef %1, i32 noundef %2) #1 {
  %4 = alloca ptr, align 8
  %5 = alloca ptr, align 8
  %6 = alloca i32, align 4
  %7 = alloca i32, align 4
  store ptr %0, ptr %4, align 8, !tbaa !17
  store ptr %1, ptr %5, align 8, !tbaa !17
  store i32 %2, ptr %6, align 4, !tbaa !19
  call void @llvm.lifetime.start.p0(i64 4, ptr %7) #3
  store i32 0, ptr %7, align 4, !tbaa !19
  br label %8

8:                                                ; preds = %54, %3
  %9 = load i32, ptr %7, align 4, !tbaa !19
  %10 = load i32, ptr %6, align 4, !tbaa !19
  %11 = icmp slt i32 %9, %10
  br i1 %11, label %13, label %12

12:                                               ; preds = %8
  call void @llvm.lifetime.end.p0(i64 4, ptr %7) #3
  br label %57

13:                                               ; preds = %8
  %14 = load ptr, ptr %5, align 8, !tbaa !17
  %15 = load i32, ptr %7, align 4, !tbaa !19
  %16 = sext i32 %15 to i64
  %17 = getelementptr inbounds [2 x i32], ptr %14, i64 %16
  %18 = getelementptr inbounds [2 x i32], ptr %17, i64 0, i64 0
  %19 = load i32, ptr %18, align 4, !tbaa !19
  %20 = sext i32 %19 to i64
  %21 = load ptr, ptr %5, align 8, !tbaa !17
  %22 = load i32, ptr %7, align 4, !tbaa !19
  %23 = sext i32 %22 to i64
  %24 = getelementptr inbounds [2 x i32], ptr %21, i64 %23
  %25 = getelementptr inbounds [2 x i32], ptr %24, i64 0, i64 0
  %26 = load i32, ptr %25, align 4, !tbaa !19
  %27 = sext i32 %26 to i64
  %28 = mul nsw i64 %20, %27
  %29 = load ptr, ptr %5, align 8, !tbaa !17
  %30 = load i32, ptr %7, align 4, !tbaa !19
  %31 = sext i32 %30 to i64
  %32 = getelementptr inbounds [2 x i32], ptr %29, i64 %31
  %33 = getelementptr inbounds [2 x i32], ptr %32, i64 0, i64 1
  %34 = load i32, ptr %33, align 4, !tbaa !19
  %35 = sext i32 %34 to i64
  %36 = load ptr, ptr %5, align 8, !tbaa !17
  %37 = load i32, ptr %7, align 4, !tbaa !19
  %38 = sext i32 %37 to i64
  %39 = getelementptr inbounds [2 x i32], ptr %36, i64 %38
  %40 = getelementptr inbounds [2 x i32], ptr %39, i64 0, i64 1
  %41 = load i32, ptr %40, align 4, !tbaa !19
  %42 = sext i32 %41 to i64
  %43 = mul nsw i64 %35, %42
  %44 = add nsw i64 %28, %43
  %45 = add nsw i64 %44, 134217728
  %46 = ashr i64 %45, 28
  %47 = trunc i64 %46 to i32
  %48 = load ptr, ptr %4, align 8, !tbaa !17
  %49 = load i32, ptr %7, align 4, !tbaa !19
  %50 = sext i32 %49 to i64
  %51 = getelementptr inbounds i32, ptr %48, i64 %50
  %52 = load i32, ptr %51, align 4, !tbaa !19
  %53 = add i32 %52, %47
  store i32 %53, ptr %51, align 4, !tbaa !19
  br label %54

54:                                               ; preds = %13
  %55 = load i32, ptr %7, align 4, !tbaa !19
  %56 = add nsw i32 %55, 1
  store i32 %56, ptr %7, align 4, !tbaa !19
  br label %8, !llvm.loop !21

57:                                               ; preds = %12
  ret void
}