; Function Attrs: nofree norecurse nosync nounwind memory(argmem: readwrite) uwtable
define internal void @ps_add_squares_c(ptr noalias noundef captures(none) %0, ptr noundef readonly captures(none) %1, i32 noundef %2) #1 {
  %4 = icmp sgt i32 %2, 0
  br i1 %4, label %.lr.ph.preheader, label %._crit_edge

.lr.ph.preheader:                                 ; preds = %3
  %wide.trip.count = zext nneg i32 %2 to i64
  br label %.lr.ph

._crit_edge:                                      ; preds = %.lr.ph, %3
  ret void

.lr.ph:                                           ; preds = %.lr.ph.preheader, %.lr.ph
  %indvars.iv = phi i64 [ 0, %.lr.ph.preheader ], [ %indvars.iv.next, %.lr.ph ]
  %5 = getelementptr inbounds nuw [2 x i32], ptr %1, i64 %indvars.iv
  %6 = load i32, ptr %5, align 4, !tbaa !15
  %7 = sext i32 %6 to i64
  %8 = mul nsw i64 %7, %7
  %9 = getelementptr inbounds nuw i8, ptr %5, i64 4
  %10 = load i32, ptr %9, align 4, !tbaa !15
  %11 = sext i32 %10 to i64
  %12 = mul nsw i64 %11, %11
  %13 = add nuw nsw i64 %8, 134217728
  %14 = add nuw nsw i64 %13, %12
  %15 = lshr i64 %14, 28
  %16 = trunc i64 %15 to i32
  %17 = getelementptr inbounds nuw i32, ptr %0, i64 %indvars.iv
  %18 = load i32, ptr %17, align 4, !tbaa !15
  %19 = add i32 %18, %16
  store i32 %19, ptr %17, align 4, !tbaa !15
  %indvars.iv.next = add nuw nsw i64 %indvars.iv, 1
  %exitcond.not = icmp eq i64 %indvars.iv.next, %wide.trip.count
  br i1 %exitcond.not, label %._crit_edge, label %.lr.ph, !llvm.loop !17
}